target datalayout = "e-m:e-p270:32:32-p271:32:32-p272:64:64-i64:64-i128:128-f80:128-n8:16:32:64-S128"
target triple = "x86_64-pc-linux-gnu"

%struct.redisServer = type { i32, i64, ptr, ptr, ptr, i32, i32, i32, i32, i32, ptr, ptr, ptr, ptr, ptr, i32, i32, i32, i32, i64, i32, i32, i32, i32, ptr, i32, i32, [41 x i8], i32, i64, i32, i32, i32, ptr, ptr, i32, i32, i64, ptr, ptr, ptr, ptr, [2 x i32], i32, i32, i32, i32, i32, i32, [16 x ptr], i32, ptr, ptr, i32, [8 x %struct.connListener], i32, %struct.connListener, ptr, ptr, ptr, ptr, ptr, ptr, ptr, ptr, ptr, ptr, i32, ptr, i32, ptr, [3 x %struct.pause_event], [256 x i8], ptr, i64, i32, i32, [128 x i32], i32, i32, i64, i32, i32, i32, i32, i32, i64, i64, i64, i64, i64, i64, i64, i64, i64, i64, double, i64, i64, i64, i64, i64, i64, i64, i64, i64, i64, i64, i64, i64, i64, i64, i64, i64, i64, i64, i64, i64, double, i64, i64, i64, i64, i64, ptr, i64, i64, i64, %struct.malloc_stats, i64, i64, i64, i64, i64, i64, i64, i64, i64, i64, i64, i64, double, [4 x i64], i64, i64, i64, i64, [128 x i64], [128 x i64], i64, i64, [7 x %struct.anon], i64, i64, i64, i64, i64, i64, [4 x %struct.durationStats], i32, i32, i32, i32, i32, i32, i32, i32, i32, i32, i32, i32, i64, i32, i32, i32, i32, i64, i64, i32, i32, i32, i32, i32, ptr, [3 x %struct.clientBufferLimitsConfig], i32, i32, i32, ptr, i32, i32, i32, i32, i32, i32, ptr, ptr, i32, i32, i64, i64, i64, i64, i64, i32, i32, ptr, i32, i32, i64, i64, i64, i64, i64, i32, i32, i64, i32, i32, i32, i32, i32, i32, i32, i32, ptr, i32, i64, i64, i64, i64, i32, ptr, i32, ptr, i32, i32, i32, i64, i64, i64, i64, i32, i32, i32, i32, i32, i32, ptr, i32, i32, ptr, i32, i32, i32, [2 x i32], i32, %struct.redisOpArray, i32, ptr, i32, ptr, i32, i32, i32, i32, i32, i32, i32, [41 x i8], [41 x i8], i64, i64, i64, i64, i32, i32, ptr, i64, i64, %struct.replDataBuf, i64, i64, i32, i32, i32, i32, i32, i32, i32, i32, i32, i64, ptr, i64, ptr, ptr, ptr, i32, i32, ptr, ptr, i32, i32, i32, i64, i64, i64, i64, ptr, ptr, i32, ptr, i64, i32, i32, i32, i64, i32, i32, i32, i32, ptr, i32, i32, [41 x i8], i64, i32, ptr, i32, i32, i64, i64, i32, i32, i32, i32, i32, i64, [3 x i32], i32, i32, i32, [10 x i32], ptr, ptr, i32, i64, ptr, ptr, i32, i32, i32, i32, i64, i64, i64, i64, i64, i64, i64, i64, i64, i64, i32, i32, i64, i64, i32, i64, i64, i64, i64, i64, ptr, ptr, i32, ptr, i32, i32, i32, i32, i64, i64, ptr, ptr, i32, i32, i32, i32, i32, ptr, ptr, ptr, i32, i32, i32, i32, i32, i32, i32, i64, i32, i32, i64, i32, i32, i32, i32, i32, i32, i32, i64, ptr, ptr, i64, ptr, i32, %struct.aclInfo, i32, i64, i32, i32, i32, %struct.redisTLSContextConfig, ptr, ptr, ptr, ptr, ptr, i64, i32, ptr, i32, i32, i32, i64, i32, ptr }
%struct.connListener = type { [16 x i32], i32, ptr, i32, i32, ptr, ptr }
%struct.pause_event = type { i32, i64 }
%struct.malloc_stats = type { i64, i64, i64, i64, i64, i64, i64, i64, i64, i64, i64 }
%struct.anon = type { i64, i64, [16 x i64], i32 }
%struct.durationStats = type { i64, i64, i64 }
%struct.clientBufferLimitsConfig = type { i64, i64, i64 }
%struct.redisOpArray = type { ptr, i32, i32 }
%struct.replDataBuf = type { ptr, i64, i64, i64, i64 }
%struct.aclInfo = type { i64, i64, i64, i64 }
%struct.redisTLSContextConfig = type { ptr, ptr, ptr, ptr, ptr, ptr, ptr, ptr, ptr, ptr, ptr, ptr, i32, i32, i32, i32 }
%struct.latencyTimeSeries = type { i32, i32, [160 x %struct.latencySample] }
%struct.latencySample = type { i32, i32 }
%struct.latencyStats = type { i32, i32, i32, i32, i32, i32, i64 }

@server = external global %struct.redisServer, align 8

; Function Attrs: nounwind uwtable
define dso_local void @analyzeLatencyForEvent(ptr noundef %0, ptr noundef %1) #0 {
  %3 = alloca ptr, align 8
  %4 = alloca ptr, align 8
  %5 = alloca ptr, align 8
  %6 = alloca i32, align 4
  %7 = alloca i64, align 8
  %8 = alloca i32, align 4
  %9 = alloca i64, align 8
  store ptr %0, ptr %3, align 8, !tbaa !40
  store ptr %1, ptr %4, align 8, !tbaa !58
  call void @llvm.lifetime.start.p0(i64 8, ptr %5) #10
  %10 = load ptr, ptr getelementptr inbounds nuw (%struct.redisServer, ptr @server, i32 0, i32 413), align 8, !tbaa !11
  %11 = load ptr, ptr %3, align 8, !tbaa !40
  %12 = call ptr @dictFetchValue(ptr noundef %10, ptr noundef %11)
  store ptr %12, ptr %5, align 8, !tbaa !42
  call void @llvm.lifetime.start.p0(i64 4, ptr %6) #10
  call void @llvm.lifetime.start.p0(i64 8, ptr %7) #10
  %13 = load ptr, ptr %5, align 8, !tbaa !42
  %14 = icmp ne ptr %13, null
  br i1 %14, label %15, label %19

15:                                               ; preds = %2
  %16 = load ptr, ptr %5, align 8, !tbaa !42
  %17 = getelementptr inbounds nuw %struct.latencyTimeSeries, ptr %16, i32 0, i32 1
  %18 = load i32, ptr %17, align 4, !tbaa !47
  br label %20

19:                                               ; preds = %2
  br label %20

20:                                               ; preds = %19, %15
  %21 = phi i32 [ %18, %15 ], [ 0, %19 ]
  %22 = load ptr, ptr %4, align 8, !tbaa !58
  %23 = getelementptr inbounds nuw %struct.latencyStats, ptr %22, i32 0, i32 0
  store i32 %21, ptr %23, align 8, !tbaa !60
  %24 = load ptr, ptr %4, align 8, !tbaa !58
  %25 = getelementptr inbounds nuw %struct.latencyStats, ptr %24, i32 0, i32 1
  store i32 0, ptr %25, align 4, !tbaa !62
  %26 = load ptr, ptr %4, align 8, !tbaa !58
  %27 = getelementptr inbounds nuw %struct.latencyStats, ptr %26, i32 0, i32 2
  store i32 0, ptr %27, align 8, !tbaa !63
  %28 = load ptr, ptr %4, align 8, !tbaa !58
  %29 = getelementptr inbounds nuw %struct.latencyStats, ptr %28, i32 0, i32 3
  store i32 0, ptr %29, align 4, !tbaa !64
  %30 = load ptr, ptr %4, align 8, !tbaa !58
  %31 = getelementptr inbounds nuw %struct.latencyStats, ptr %30, i32 0, i32 4
  store i32 0, ptr %31, align 8, !tbaa !65
  %32 = load ptr, ptr %4, align 8, !tbaa !58
  %33 = getelementptr inbounds nuw %struct.latencyStats, ptr %32, i32 0, i32 5
  store i32 0, ptr %33, align 4, !tbaa !66
  %34 = load ptr, ptr %4, align 8, !tbaa !58
  %35 = getelementptr inbounds nuw %struct.latencyStats, ptr %34, i32 0, i32 6
  store i64 0, ptr %35, align 8, !tbaa !67
  %36 = load ptr, ptr %5, align 8, !tbaa !42
  %37 = icmp ne ptr %36, null
  br i1 %37, label %39, label %38

38:                                               ; preds = %20
  store i32 1, ptr %8, align 4
  br label %251

39:                                               ; preds = %20
  store i64 0, ptr %7, align 8, !tbaa !44
  store i32 0, ptr %6, align 4, !tbaa !48
  br label %40

40:                                               ; preds = %159, %39
  %41 = load i32, ptr %6, align 4, !tbaa !48
  %42 = icmp slt i32 %41, 160
  br i1 %42, label %43, label %162

43:                                               ; preds = %40
  %44 = load ptr, ptr %5, align 8, !tbaa !42
  %45 = getelementptr inbounds nuw %struct.latencyTimeSeries, ptr %44, i32 0, i32 2
  %46 = load i32, ptr %6, align 4, !tbaa !48
  %47 = sext i32 %46 to i64
  %48 = getelementptr inbounds [160 x %struct.latencySample], ptr %45, i64 0, i64 %47
  %49 = getelementptr inbounds nuw %struct.latencySample, ptr %48, i32 0, i32 0
  %50 = load i32, ptr %49, align 4, !tbaa !49
  %51 = icmp eq i32 %50, 0
  br i1 %51, label %52, label %53

52:                                               ; preds = %43
  br label %159

53:                                               ; preds = %43
  %54 = load ptr, ptr %4, align 8, !tbaa !58
  %55 = getelementptr inbounds nuw %struct.latencyStats, ptr %54, i32 0, i32 5
  %56 = load i32, ptr %55, align 4, !tbaa !66
  %57 = add i32 %56, 1
  store i32 %57, ptr %55, align 4, !tbaa !66
  %58 = load ptr, ptr %4, align 8, !tbaa !58
  %59 = getelementptr inbounds nuw %struct.latencyStats, ptr %58, i32 0, i32 5
  %60 = load i32, ptr %59, align 4, !tbaa !66
  %61 = icmp eq i32 %60, 1
  br i1 %61, label %62, label %74

62:                                               ; preds = %53
  %63 = load ptr, ptr %5, align 8, !tbaa !42
  %64 = getelementptr inbounds nuw %struct.latencyTimeSeries, ptr %63, i32 0, i32 2
  %65 = load i32, ptr %6, align 4, !tbaa !48
  %66 = sext i32 %65 to i64
  %67 = getelementptr inbounds [160 x %struct.latencySample], ptr %64, i64 0, i64 %66
  %68 = getelementptr inbounds nuw %struct.latencySample, ptr %67, i32 0, i32 1
  %69 = load i32, ptr %68, align 4, !tbaa !51
  %70 = load ptr, ptr %4, align 8, !tbaa !58
  %71 = getelementptr inbounds nuw %struct.latencyStats, ptr %70, i32 0, i32 3
  store i32 %69, ptr %71, align 4, !tbaa !64
  %72 = load ptr, ptr %4, align 8, !tbaa !58
  %73 = getelementptr inbounds nuw %struct.latencyStats, ptr %72, i32 0, i32 2
  store i32 %69, ptr %73, align 8, !tbaa !63
  br label %119

74:                                               ; preds = %53
  %75 = load ptr, ptr %4, align 8, !tbaa !58
  %76 = getelementptr inbounds nuw %struct.latencyStats, ptr %75, i32 0, i32 2
  %77 = load i32, ptr %76, align 8, !tbaa !63
  %78 = load ptr, ptr %5, align 8, !tbaa !42
  %79 = getelementptr inbounds nuw %struct.latencyTimeSeries, ptr %78, i32 0, i32 2
  %80 = load i32, ptr %6, align 4, !tbaa !48
  %81 = sext i32 %80 to i64
  %82 = getelementptr inbounds [160 x %struct.latencySample], ptr %79, i64 0, i64 %81
  %83 = getelementptr inbounds nuw %struct.latencySample, ptr %82, i32 0, i32 1
  %84 = load i32, ptr %83, align 4, !tbaa !51
  %85 = icmp ugt i32 %77, %84
  br i1 %85, label %86, label %96

86:                                               ; preds = %74
  %87 = load ptr, ptr %5, align 8, !tbaa !42
  %88 = getelementptr inbounds nuw %struct.latencyTimeSeries, ptr %87, i32 0, i32 2
  %89 = load i32, ptr %6, align 4, !tbaa !48
  %90 = sext i32 %89 to i64
  %91 = getelementptr inbounds [160 x %struct.latencySample], ptr %88, i64 0, i64 %90
  %92 = getelementptr inbounds nuw %struct.latencySample, ptr %91, i32 0, i32 1
  %93 = load i32, ptr %92, align 4, !tbaa !51
  %94 = load ptr, ptr %4, align 8, !tbaa !58
  %95 = getelementptr inbounds nuw %struct.latencyStats, ptr %94, i32 0, i32 2
  store i32 %93, ptr %95, align 8, !tbaa !63
  br label %96

96:                                               ; preds = %86, %74
  %97 = load ptr, ptr %4, align 8, !tbaa !58
  %98 = getelementptr inbounds nuw %struct.latencyStats, ptr %97, i32 0, i32 3
  %99 = load i32, ptr %98, align 4, !tbaa !64
  %100 = load ptr, ptr %5, align 8, !tbaa !42
  %101 = getelementptr inbounds nuw %struct.latencyTimeSeries, ptr %100, i32 0, i32 2
  %102 = load i32, ptr %6, align 4, !tbaa !48
  %103 = sext i32 %102 to i64
  %104 = getelementptr inbounds [160 x %struct.latencySample], ptr %101, i64 0, i64 %103
  %105 = getelementptr inbounds nuw %struct.latencySample, ptr %104, i32 0, i32 1
  %106 = load i32, ptr %105, align 4, !tbaa !51
  %107 = icmp ult i32 %99, %106
  br i1 %107, label %108, label %118

108:                                              ; preds = %96
  %109 = load ptr, ptr %5, align 8, !tbaa !42
  %110 = getelementptr inbounds nuw %struct.latencyTimeSeries, ptr %109, i32 0, i32 2
  %111 = load i32, ptr %6, align 4, !tbaa !48
  %112 = sext i32 %111 to i64
  %113 = getelementptr inbounds [160 x %struct.latencySample], ptr %110, i64 0, i64 %112
  %114 = getelementptr inbounds nuw %struct.latencySample, ptr %113, i32 0, i32 1
  %115 = load i32, ptr %114, align 4, !tbaa !51
  %116 = load ptr, ptr %4, align 8, !tbaa !58
  %117 = getelementptr inbounds nuw %struct.latencyStats, ptr %116, i32 0, i32 3
  store i32 %115, ptr %117, align 4, !tbaa !64
  br label %118

118:                                              ; preds = %108, %96
  br label %119

119:                                              ; preds = %118, %62
  %120 = load ptr, ptr %5, align 8, !tbaa !42
  %121 = getelementptr inbounds nuw %struct.latencyTimeSeries, ptr %120, i32 0, i32 2
  %122 = load i32, ptr %6, align 4, !tbaa !48
  %123 = sext i32 %122 to i64
  %124 = getelementptr inbounds [160 x %struct.latencySample], ptr %121, i64 0, i64 %123
  %125 = getelementptr inbounds nuw %struct.latencySample, ptr %124, i32 0, i32 1
  %126 = load i32, ptr %125, align 4, !tbaa !51
  %127 = zext i32 %126 to i64
  %128 = load i64, ptr %7, align 8, !tbaa !44
  %129 = add i64 %128, %127
  store i64 %129, ptr %7, align 8, !tbaa !44
  %130 = load ptr, ptr %4, align 8, !tbaa !58
  %131 = getelementptr inbounds nuw %struct.latencyStats, ptr %130, i32 0, i32 6
  %132 = load i64, ptr %131, align 8, !tbaa !67
  %133 = icmp eq i64 %132, 0
  br i1 %133, label %147, label %134

134:                                              ; preds = %119
  %135 = load ptr, ptr %5, align 8, !tbaa !42
  %136 = getelementptr inbounds nuw %struct.latencyTimeSeries, ptr %135, i32 0, i32 2
  %137 = load i32, ptr %6, align 4, !tbaa !48
  %138 = sext i32 %137 to i64
  %139 = getelementptr inbounds [160 x %struct.latencySample], ptr %136, i64 0, i64 %138
  %140 = getelementptr inbounds nuw %struct.latencySample, ptr %139, i32 0, i32 0
  %141 = load i32, ptr %140, align 4, !tbaa !49
  %142 = sext i32 %141 to i64
  %143 = load ptr, ptr %4, align 8, !tbaa !58
  %144 = getelementptr inbounds nuw %struct.latencyStats, ptr %143, i32 0, i32 6
  %145 = load i64, ptr %144, align 8, !tbaa !67
  %146 = icmp slt i64 %142, %145
  br i1 %146, label %147, label %158

147:                                              ; preds = %134, %119
  %148 = load ptr, ptr %5, align 8, !tbaa !42
  %149 = getelementptr inbounds nuw %struct.latencyTimeSeries, ptr %148, i32 0, i32 2
  %150 = load i32, ptr %6, align 4, !tbaa !48
  %151 = sext i32 %150 to i64
  %152 = getelementptr inbounds [160 x %struct.latencySample], ptr %149, i64 0, i64 %151
  %153 = getelementptr inbounds nuw %struct.latencySample, ptr %152, i32 0, i32 0
  %154 = load i32, ptr %153, align 4, !tbaa !49
  %155 = sext i32 %154 to i64
  %156 = load ptr, ptr %4, align 8, !tbaa !58
  %157 = getelementptr inbounds nuw %struct.latencyStats, ptr %156, i32 0, i32 6
  store i64 %155, ptr %157, align 8, !tbaa !67
  br label %158

158:                                              ; preds = %147, %134
  br label %159

159:                                              ; preds = %158, %52
  %160 = load i32, ptr %6, align 4, !tbaa !48
  %161 = add nsw i32 %160, 1
  store i32 %161, ptr %6, align 4, !tbaa !48
  br label %40, !llvm.loop !68

162:                                              ; preds = %40
  %163 = load ptr, ptr %4, align 8, !tbaa !58
  %164 = getelementptr inbounds nuw %struct.latencyStats, ptr %163, i32 0, i32 5
  %165 = load i32, ptr %164, align 4, !tbaa !66
  %166 = icmp ne i32 %165, 0
  br i1 %166, label %167, label %192

167:                                              ; preds = %162
  %168 = load i64, ptr %7, align 8, !tbaa !44
  %169 = load ptr, ptr %4, align 8, !tbaa !58
  %170 = getelementptr inbounds nuw %struct.latencyStats, ptr %169, i32 0, i32 5
  %171 = load i32, ptr %170, align 4, !tbaa !66
  %172 = zext i32 %171 to i64
  %173 = udiv i64 %168, %172
  %174 = trunc i64 %173 to i32
  %175 = load ptr, ptr %4, align 8, !tbaa !58
  %176 = getelementptr inbounds nuw %struct.latencyStats, ptr %175, i32 0, i32 1
  store i32 %174, ptr %176, align 4, !tbaa !62
  %177 = call i64 @time(ptr noundef null) #10
  %178 = load ptr, ptr %4, align 8, !tbaa !58
  %179 = getelementptr inbounds nuw %struct.latencyStats, ptr %178, i32 0, i32 6
  %180 = load i64, ptr %179, align 8, !tbaa !67
  %181 = sub nsw i64 %177, %180
  %182 = load ptr, ptr %4, align 8, !tbaa !58
  %183 = getelementptr inbounds nuw %struct.latencyStats, ptr %182, i32 0, i32 6
  store i64 %181, ptr %183, align 8, !tbaa !67
  %184 = load ptr, ptr %4, align 8, !tbaa !58
  %185 = getelementptr inbounds nuw %struct.latencyStats, ptr %184, i32 0, i32 6
  %186 = load i64, ptr %185, align 8, !tbaa !67
  %187 = icmp eq i64 %186, 0
  br i1 %187, label %188, label %191

188:                                              ; preds = %167
  %189 = load ptr, ptr %4, align 8, !tbaa !58
  %190 = getelementptr inbounds nuw %struct.latencyStats, ptr %189, i32 0, i32 6
  store i64 1, ptr %190, align 8, !tbaa !67
  br label %191

191:                                              ; preds = %188, %167
  br label %192

192:                                              ; preds = %191, %162
  store i64 0, ptr %7, align 8, !tbaa !44
  store i32 0, ptr %6, align 4, !tbaa !48
  br label %193

193:                                              ; preds = %232, %192
  %194 = load i32, ptr %6, align 4, !tbaa !48
  %195 = icmp slt i32 %194, 160
  br i1 %195, label %196, label %235

196:                                              ; preds = %193
  call void @llvm.lifetime.start.p0(i64 8, ptr %9) #10
  %197 = load ptr, ptr %5, align 8, !tbaa !42
  %198 = getelementptr inbounds nuw %struct.latencyTimeSeries, ptr %197, i32 0, i32 2
  %199 = load i32, ptr %6, align 4, !tbaa !48
  %200 = sext i32 %199 to i64
  %201 = getelementptr inbounds [160 x %struct.latencySample], ptr %198, i64 0, i64 %200
  %202 = getelementptr inbounds nuw %struct.latencySample, ptr %201, i32 0, i32 0
  %203 = load i32, ptr %202, align 4, !tbaa !49
  %204 = icmp eq i32 %203, 0
  br i1 %204, label %205, label %206

205:                                              ; preds = %196
  store i32 7, ptr %8, align 4
  br label %229

206:                                              ; preds = %196
  %207 = load ptr, ptr %4, align 8, !tbaa !58
  %208 = getelementptr inbounds nuw %struct.latencyStats, ptr %207, i32 0, i32 1
  %209 = load i32, ptr %208, align 4, !tbaa !62
  %210 = zext i32 %209 to i64
  %211 = load ptr, ptr %5, align 8, !tbaa !42
  %212 = getelementptr inbounds nuw %struct.latencyTimeSeries, ptr %211, i32 0, i32 2
  %213 = load i32, ptr %6, align 4, !tbaa !48
  %214 = sext i32 %213 to i64
  %215 = getelementptr inbounds [160 x %struct.latencySample], ptr %212, i64 0, i64 %214
  %216 = getelementptr inbounds nuw %struct.latencySample, ptr %215, i32 0, i32 1
  %217 = load i32, ptr %216, align 4, !tbaa !51
  %218 = zext i32 %217 to i64
  %219 = sub nsw i64 %210, %218
  store i64 %219, ptr %9, align 8, !tbaa !44
  %220 = load i64, ptr %9, align 8, !tbaa !44
  %221 = icmp slt i64 %220, 0
  br i1 %221, label %222, label %225

222:                                              ; preds = %206
  %223 = load i64, ptr %9, align 8, !tbaa !44
  %224 = sub nsw i64 0, %223
  store i64 %224, ptr %9, align 8, !tbaa !44
  br label %225

225:                                              ; preds = %222, %206
  %226 = load i64, ptr %9, align 8, !tbaa !44
  %227 = load i64, ptr %7, align 8, !tbaa !44
  %228 = add i64 %227, %226
  store i64 %228, ptr %7, align 8, !tbaa !44
  store i32 0, ptr %8, align 4
  br label %229

229:                                              ; preds = %225, %205
  call void @llvm.lifetime.end.p0(i64 8, ptr %9) #10
  %230 = load i32, ptr %8, align 4
  switch i32 %230, label %254 [
    i32 0, label %231
    i32 7, label %232
  ]

231:                                              ; preds = %229
  br label %232

232:                                              ; preds = %231, %229
  %233 = load i32, ptr %6, align 4, !tbaa !48
  %234 = add nsw i32 %233, 1
  store i32 %234, ptr %6, align 4, !tbaa !48
  br label %193, !llvm.loop !69

235:                                              ; preds = %193
  %236 = load ptr, ptr %4, align 8, !tbaa !58
  %237 = getelementptr inbounds nuw %struct.latencyStats, ptr %236, i32 0, i32 5
  %238 = load i32, ptr %237, align 4, !tbaa !66
  %239 = icmp ne i32 %238, 0
  br i1 %239, label %240, label %250

240:                                              ; preds = %235
  %241 = load i64, ptr %7, align 8, !tbaa !44
  %242 = load ptr, ptr %4, align 8, !tbaa !58
  %243 = getelementptr inbounds nuw %struct.latencyStats, ptr %242, i32 0, i32 5
  %244 = load i32, ptr %243, align 4, !tbaa !66
  %245 = zext i32 %244 to i64
  %246 = udiv i64 %241, %245
  %247 = trunc i64 %246 to i32
  %248 = load ptr, ptr %4, align 8, !tbaa !58
  %249 = getelementptr inbounds nuw %struct.latencyStats, ptr %248, i32 0, i32 4
  store i32 %247, ptr %249, align 8, !tbaa !65
  br label %250

250:                                              ; preds = %240, %235
  store i32 0, ptr %8, align 4
  br label %251

251:                                              ; preds = %250, %38
  call void @llvm.lifetime.end.p0(i64 8, ptr %7) #10
  call void @llvm.lifetime.end.p0(i64 4, ptr %6) #10
  call void @llvm.lifetime.end.p0(i64 8, ptr %5) #10
  %252 = load i32, ptr %8, align 4
  switch i32 %252, label %254 [
    i32 0, label %253
    i32 1, label %253
  ]

253:                                              ; preds = %251, %251
  ret void

254:                                              ; preds = %251, %229
  unreachable
}