; Function Attrs: nounwind uwtable
define dso_local void @analyzeLatencyForEvent(ptr noundef %0, ptr noundef captures(none) initializes((0, 32)) %1) local_unnamed_addr #2 {
  %3 = load ptr, ptr getelementptr inbounds nuw (i8, ptr @server, i64 8072), align 8, !tbaa !5
  %4 = tail call ptr @dictFetchValue(ptr noundef %3, ptr noundef %0) #14
  %.not = icmp eq ptr %4, null
  br i1 %.not, label %8, label %5

5:                                                ; preds = %2
  %6 = getelementptr inbounds nuw i8, ptr %4, i64 4
  %7 = load i32, ptr %6, align 4, !tbaa !38
  br label %8

8:                                                ; preds = %2, %5
  %9 = phi i32 [ %7, %5 ], [ 0, %2 ]
  store i32 %9, ptr %1, align 8, !tbaa !46
  %10 = getelementptr inbounds nuw i8, ptr %1, i64 4
  %11 = getelementptr inbounds nuw i8, ptr %1, i64 8
  %12 = getelementptr inbounds nuw i8, ptr %1, i64 12
  %13 = getelementptr inbounds nuw i8, ptr %1, i64 16
  %14 = getelementptr inbounds nuw i8, ptr %1, i64 20
  %15 = getelementptr inbounds nuw i8, ptr %1, i64 24
  tail call void @llvm.memset.p0.i64(ptr noundef nonnull align 4 dereferenceable(28) %10, i8 0, i64 28, i1 false)
  br i1 %.not, label %80, label %.preheader

.preheader:                                       ; preds = %8
  %16 = getelementptr inbounds nuw i8, ptr %4, i64 8
  br label %17

17:                                               ; preds = %.preheader, %47
  %18 = phi i64 [ 0, %.preheader ], [ %48, %47 ]
  %19 = phi i32 [ 0, %.preheader ], [ %49, %47 ]
  %20 = phi i32 [ 0, %.preheader ], [ %50, %47 ]
  %21 = phi i32 [ 0, %.preheader ], [ %51, %47 ]
  %indvars.iv = phi i64 [ 0, %.preheader ], [ %indvars.iv.next, %47 ]
  %.06581 = phi i64 [ 0, %.preheader ], [ %.1, %47 ]
  %22 = getelementptr inbounds nuw [160 x %struct.latencySample], ptr %16, i64 0, i64 %indvars.iv
  %23 = load i32, ptr %22, align 4, !tbaa !41
  %24 = icmp eq i32 %23, 0
  br i1 %24, label %47, label %25

25:                                               ; preds = %17
  %26 = add i32 %21, 1
  store i32 %26, ptr %14, align 4, !tbaa !48
  %27 = icmp eq i32 %21, 0
  %28 = getelementptr inbounds nuw i8, ptr %22, i64 4
  %29 = load i32, ptr %28, align 4, !tbaa !43
  br i1 %27, label %30, label %31

30:                                               ; preds = %25
  store i32 %29, ptr %12, align 4, !tbaa !49
  store i32 %29, ptr %11, align 8, !tbaa !50
  br label %38

31:                                               ; preds = %25
  %32 = icmp ugt i32 %20, %29
  br i1 %32, label %33, label %34

33:                                               ; preds = %31
  store i32 %29, ptr %11, align 8, !tbaa !50
  br label %34

34:                                               ; preds = %33, %31
  %35 = phi i32 [ %29, %33 ], [ %20, %31 ]
  %36 = icmp ult i32 %19, %29
  br i1 %36, label %37, label %38

37:                                               ; preds = %34
  store i32 %29, ptr %12, align 4, !tbaa !49
  br label %38

38:                                               ; preds = %34, %37, %30
  %39 = phi i32 [ %19, %34 ], [ %29, %37 ], [ %29, %30 ]
  %40 = phi i32 [ %35, %34 ], [ %35, %37 ], [ %29, %30 ]
  %41 = zext i32 %29 to i64
  %42 = add i64 %.06581, %41
  %43 = icmp eq i64 %18, 0
  %44 = sext i32 %23 to i64
  %45 = icmp sgt i64 %18, %44
  %or.cond = or i1 %43, %45
  br i1 %or.cond, label %46, label %47

46:                                               ; preds = %38
  store i64 %44, ptr %15, align 8, !tbaa !51
  br label %47

47:                                               ; preds = %38, %46, %17
  %48 = phi i64 [ %18, %17 ], [ %44, %46 ], [ %18, %38 ]
  %49 = phi i32 [ %19, %17 ], [ %39, %46 ], [ %39, %38 ]
  %50 = phi i32 [ %20, %17 ], [ %40, %46 ], [ %40, %38 ]
  %51 = phi i32 [ %21, %17 ], [ %26, %46 ], [ %26, %38 ]
  %.1 = phi i64 [ %.06581, %17 ], [ %42, %46 ], [ %42, %38 ]
  %indvars.iv.next = add nuw nsw i64 %indvars.iv, 1
  %exitcond.not = icmp eq i64 %indvars.iv.next, 160
  br i1 %exitcond.not, label %52, label %17, !llvm.loop !52

52:                                               ; preds = %47
  %.not77 = icmp eq i32 %51, 0
  br i1 %.not77, label %.preheader89, label %53

53:                                               ; preds = %52
  %54 = zext i32 %51 to i64
  %55 = udiv i64 %.1, %54
  %56 = trunc i64 %55 to i32
  store i32 %56, ptr %10, align 4, !tbaa !53
  %57 = tail call i64 @time(ptr noundef null) #14
  %58 = load i64, ptr %15, align 8, !tbaa !51
  %59 = sub nsw i64 %57, %58
  %60 = icmp eq i64 %57, %58
  %spec.store.select = select i1 %60, i64 1, i64 %59
  store i64 %spec.store.select, ptr %15, align 8
  br label %.preheader89

.preheader89:                                     ; preds = %53, %52
  br label %61

61:                                               ; preds = %.preheader89, %73
  %indvars.iv85 = phi i64 [ %indvars.iv.next86, %73 ], [ 0, %.preheader89 ]
  %.283 = phi i64 [ %.3, %73 ], [ 0, %.preheader89 ]
  %62 = getelementptr inbounds nuw [160 x %struct.latencySample], ptr %16, i64 0, i64 %indvars.iv85
  %63 = load i32, ptr %62, align 4, !tbaa !41
  %64 = icmp eq i32 %63, 0
  br i1 %64, label %73, label %65

65:                                               ; preds = %61
  %66 = load i32, ptr %10, align 4, !tbaa !53
  %67 = zext i32 %66 to i64
  %68 = getelementptr inbounds nuw i8, ptr %62, i64 4
  %69 = load i32, ptr %68, align 4, !tbaa !43
  %70 = zext i32 %69 to i64
  %71 = sub nsw i64 %67, %70
  %spec.select = tail call i64 @llvm.abs.i64(i64 %71, i1 true)
  %72 = add i64 %spec.select, %.283
  br label %73

73:                                               ; preds = %61, %65
  %.3 = phi i64 [ %72, %65 ], [ %.283, %61 ]
  %indvars.iv.next86 = add nuw nsw i64 %indvars.iv85, 1
  %exitcond88.not = icmp eq i64 %indvars.iv.next86, 160
  br i1 %exitcond88.not, label %74, label %61, !llvm.loop !54

74:                                               ; preds = %73
  %75 = load i32, ptr %14, align 4, !tbaa !48
  %.not78 = icmp eq i32 %75, 0
  br i1 %.not78, label %80, label %76

76:                                               ; preds = %74
  %77 = zext i32 %75 to i64
  %78 = udiv i64 %.3, %77
  %79 = trunc i64 %78 to i32
  store i32 %79, ptr %13, align 8, !tbaa !55
  br label %80

80:                                               ; preds = %74, %76, %8
  ret void
}